target datalayout = "e-m:e-p270:32:32-p271:32:32-p272:64:64-i64:64-i128:128-f80:128-n8:16:32:64-S128"
target triple = "x86_64-pc-linux-gnu"

%struct.ustar_header = type { [100 x i8], [8 x i8], [8 x i8], [8 x i8], [12 x i8], [12 x i8], [8 x i8], [1 x i8], [100 x i8], [6 x i8], [2 x i8], [32 x i8], [32 x i8], [8 x i8], [8 x i8], [155 x i8] }
%struct.archiver_args = type { ptr, ptr, ptr, ptr, i64, ptr, ptr, ptr, ptr, i64, %struct.pathspec, i8, i32, %struct.string_list, ptr }
%struct.pathspec = type { i32, i8, i32, i32, ptr }
%struct.string_list = type { ptr, i64, i64, i8, ptr }

@.str.14 = private unnamed_addr constant [5 x i8] c"%07o\00", align 1
@.str.15 = private unnamed_addr constant [7 x i8] c"%011lo\00", align 1
@.str.16 = private unnamed_addr constant [5 x i8] c"root\00", align 1
@.str.17 = private unnamed_addr constant [6 x i8] c"ustar\00", align 1
@.str.18 = private unnamed_addr constant [3 x i8] c"00\00", align 1

; Function Attrs: nounwind uwtable
define internal i32 @ustar_header_chksum(ptr noundef %0) #0 {
  %2 = alloca ptr, align 8
  %3 = alloca ptr, align 8
  %4 = alloca i32, align 4
  store ptr %0, ptr %2, align 8, !tbaa !74
  call void @llvm.lifetime.start.p0(i64 8, ptr %3) #9
  %5 = load ptr, ptr %2, align 8, !tbaa !74
  store ptr %5, ptr %3, align 8, !tbaa !18
  call void @llvm.lifetime.start.p0(i64 4, ptr %4) #9
  store i32 0, ptr %4, align 4, !tbaa !4
  br label %6

6:                                                ; preds = %12, %1
  %7 = load ptr, ptr %3, align 8, !tbaa !18
  %8 = load ptr, ptr %2, align 8, !tbaa !74
  %9 = getelementptr inbounds nuw %struct.ustar_header, ptr %8, i32 0, i32 6
  %10 = getelementptr inbounds [8 x i8], ptr %9, i64 0, i64 0
  %11 = icmp ult ptr %7, %10
  br i1 %11, label %12, label %19

12:                                               ; preds = %6
  %13 = load ptr, ptr %3, align 8, !tbaa !18
  %14 = getelementptr inbounds nuw i8, ptr %13, i32 1
  store ptr %14, ptr %3, align 8, !tbaa !18
  %15 = load i8, ptr %13, align 1, !tbaa !68
  %16 = zext i8 %15 to i32
  %17 = load i32, ptr %4, align 4, !tbaa !4
  %18 = add i32 %17, %16
  store i32 %18, ptr %4, align 4, !tbaa !4
  br label %6, !llvm.loop !77

19:                                               ; preds = %6
  %20 = load i32, ptr %4, align 4, !tbaa !4
  %21 = zext i32 %20 to i64
  %22 = add i64 %21, 256
  %23 = trunc i64 %22 to i32
  store i32 %23, ptr %4, align 4, !tbaa !4
  %24 = load ptr, ptr %3, align 8, !tbaa !18
  %25 = getelementptr inbounds nuw i8, ptr %24, i64 8
  store ptr %25, ptr %3, align 8, !tbaa !18
  br label %26

26:                                               ; preds = %31, %19
  %27 = load ptr, ptr %3, align 8, !tbaa !18
  %28 = load ptr, ptr %2, align 8, !tbaa !74
  %29 = getelementptr inbounds nuw i8, ptr %28, i64 500
  %30 = icmp ult ptr %27, %29
  br i1 %30, label %31, label %38

31:                                               ; preds = %26
  %32 = load ptr, ptr %3, align 8, !tbaa !18
  %33 = getelementptr inbounds nuw i8, ptr %32, i32 1
  store ptr %33, ptr %3, align 8, !tbaa !18
  %34 = load i8, ptr %32, align 1, !tbaa !68
  %35 = zext i8 %34 to i32
  %36 = load i32, ptr %4, align 4, !tbaa !4
  %37 = add i32 %36, %35
  store i32 %37, ptr %4, align 4, !tbaa !4
  br label %26, !llvm.loop !78

38:                                               ; preds = %26
  %39 = load i32, ptr %4, align 4, !tbaa !4
  call void @llvm.lifetime.end.p0(i64 4, ptr %4) #9
  call void @llvm.lifetime.end.p0(i64 8, ptr %3) #9
  ret i32 %39
}

; Function Attrs: nounwind uwtable
define internal void @prepare_header(ptr noundef %0, ptr noundef %1, i32 noundef %2, i64 noundef %3) #0 {
  %5 = alloca ptr, align 8
  %6 = alloca ptr, align 8
  %7 = alloca i32, align 4
  %8 = alloca i64, align 8
  store ptr %0, ptr %5, align 8, !tbaa !32
  store ptr %1, ptr %6, align 8, !tbaa !74
  store i32 %2, ptr %7, align 4, !tbaa !4
  store i64 %3, ptr %8, align 8, !tbaa !20
  %9 = load ptr, ptr %6, align 8, !tbaa !74
  %10 = getelementptr inbounds nuw %struct.ustar_header, ptr %9, i32 0, i32 1
  %11 = getelementptr inbounds [8 x i8], ptr %10, i64 0, i64 0
  %12 = load i32, ptr %7, align 4, !tbaa !4
  %13 = and i32 %12, 4095
  %14 = call i32 (ptr, i64, ptr, ...) @xsnprintf(ptr noundef %11, i64 noundef 8, ptr noundef @.str.14, i32 noundef %13)
  %15 = load ptr, ptr %6, align 8, !tbaa !74
  %16 = getelementptr inbounds nuw %struct.ustar_header, ptr %15, i32 0, i32 4
  %17 = getelementptr inbounds [12 x i8], ptr %16, i64 0, i64 0
  %18 = load i32, ptr %7, align 4, !tbaa !4
  %19 = and i32 %18, 61440
  %20 = icmp eq i32 %19, 32768
  br i1 %20, label %21, label %23

21:                                               ; preds = %4
  %22 = load i64, ptr %8, align 8, !tbaa !20
  br label %24

23:                                               ; preds = %4
  br label %24

24:                                               ; preds = %23, %21
  %25 = phi i64 [ %22, %21 ], [ 0, %23 ]
  %26 = call i32 (ptr, i64, ptr, ...) @xsnprintf(ptr noundef %17, i64 noundef 12, ptr noundef @.str.15, i64 noundef %25)
  %27 = load ptr, ptr %6, align 8, !tbaa !74
  %28 = getelementptr inbounds nuw %struct.ustar_header, ptr %27, i32 0, i32 5
  %29 = getelementptr inbounds [12 x i8], ptr %28, i64 0, i64 0
  %30 = load ptr, ptr %5, align 8, !tbaa !32
  %31 = getelementptr inbounds nuw %struct.archiver_args, ptr %30, i32 0, i32 9
  %32 = load i64, ptr %31, align 8, !tbaa !65
  %33 = call i32 (ptr, i64, ptr, ...) @xsnprintf(ptr noundef %29, i64 noundef 12, ptr noundef @.str.15, i64 noundef %32)
  %34 = load ptr, ptr %6, align 8, !tbaa !74
  %35 = getelementptr inbounds nuw %struct.ustar_header, ptr %34, i32 0, i32 2
  %36 = getelementptr inbounds [8 x i8], ptr %35, i64 0, i64 0
  %37 = call i32 (ptr, i64, ptr, ...) @xsnprintf(ptr noundef %36, i64 noundef 8, ptr noundef @.str.14, i32 noundef 0)
  %38 = load ptr, ptr %6, align 8, !tbaa !74
  %39 = getelementptr inbounds nuw %struct.ustar_header, ptr %38, i32 0, i32 3
  %40 = getelementptr inbounds [8 x i8], ptr %39, i64 0, i64 0
  %41 = call i32 (ptr, i64, ptr, ...) @xsnprintf(ptr noundef %40, i64 noundef 8, ptr noundef @.str.14, i32 noundef 0)
  %42 = load ptr, ptr %6, align 8, !tbaa !74
  %43 = getelementptr inbounds nuw %struct.ustar_header, ptr %42, i32 0, i32 11
  %44 = getelementptr inbounds [32 x i8], ptr %43, i64 0, i64 0
  %45 = call i64 @gitstrlcpy(ptr noundef %44, ptr noundef @.str.16, i64 noundef 32)
  %46 = load ptr, ptr %6, align 8, !tbaa !74
  %47 = getelementptr inbounds nuw %struct.ustar_header, ptr %46, i32 0, i32 12
  %48 = getelementptr inbounds [32 x i8], ptr %47, i64 0, i64 0
  %49 = call i64 @gitstrlcpy(ptr noundef %48, ptr noundef @.str.16, i64 noundef 32)
  %50 = load ptr, ptr %6, align 8, !tbaa !74
  %51 = getelementptr inbounds nuw %struct.ustar_header, ptr %50, i32 0, i32 13
  %52 = getelementptr inbounds [8 x i8], ptr %51, i64 0, i64 0
  %53 = call i32 (ptr, i64, ptr, ...) @xsnprintf(ptr noundef %52, i64 noundef 8, ptr noundef @.str.14, i32 noundef 0)
  %54 = load ptr, ptr %6, align 8, !tbaa !74
  %55 = getelementptr inbounds nuw %struct.ustar_header, ptr %54, i32 0, i32 14
  %56 = getelementptr inbounds [8 x i8], ptr %55, i64 0, i64 0
  %57 = call i32 (ptr, i64, ptr, ...) @xsnprintf(ptr noundef %56, i64 noundef 8, ptr noundef @.str.14, i32 noundef 0)
  %58 = load ptr, ptr %6, align 8, !tbaa !74
  %59 = getelementptr inbounds nuw %struct.ustar_header, ptr %58, i32 0, i32 9
  %60 = getelementptr inbounds [6 x i8], ptr %59, i64 0, i64 0
  call void @llvm.memcpy.p0.p0.i64(ptr align 1 %60, ptr align 1 @.str.17, i64 6, i1 false)
  %61 = load ptr, ptr %6, align 8, !tbaa !74
  %62 = getelementptr inbounds nuw %struct.ustar_header, ptr %61, i32 0, i32 10
  %63 = getelementptr inbounds [2 x i8], ptr %62, i64 0, i64 0
  call void @llvm.memcpy.p0.p0.i64(ptr align 1 %63, ptr align 1 @.str.18, i64 2, i1 false)
  %64 = load ptr, ptr %6, align 8, !tbaa !74
  %65 = getelementptr inbounds nuw %struct.ustar_header, ptr %64, i32 0, i32 6
  %66 = getelementptr inbounds [8 x i8], ptr %65, i64 0, i64 0
  %67 = load ptr, ptr %6, align 8, !tbaa !74
  %68 = call i32 @ustar_header_chksum(ptr noundef %67)
  %69 = call i32 (ptr, i64, ptr, ...) @xsnprintf(ptr noundef %66, i64 noundef 8, ptr noundef @.str.14, i32 noundef %68)
  ret void
}