; Function Attrs: nounwind uwtable
define internal fastcc void @prepare_header(ptr noundef readonly captures(none) %0, ptr noundef nonnull %1, i32 noundef %2, i64 noundef %3) unnamed_addr #0 {
  %5 = getelementptr inbounds nuw i8, ptr %1, i64 100
  %6 = and i32 %2, 4095
  %7 = tail call i32 (ptr, i64, ptr, ...) @xsnprintf(ptr noundef nonnull %5, i64 noundef 8, ptr noundef nonnull @.str.14, i32 noundef %6) #11
  %8 = getelementptr inbounds nuw i8, ptr %1, i64 124
  %9 = and i32 %2, 61440
  %10 = icmp eq i32 %9, 32768
  %11 = select i1 %10, i64 %3, i64 0
  %12 = tail call i32 (ptr, i64, ptr, ...) @xsnprintf(ptr noundef nonnull %8, i64 noundef 12, ptr noundef nonnull @.str.15, i64 noundef %11) #11
  %13 = getelementptr inbounds nuw i8, ptr %1, i64 136
  %14 = getelementptr inbounds nuw i8, ptr %0, i64 72
  %15 = load i64, ptr %14, align 8, !tbaa !60
  %16 = tail call i32 (ptr, i64, ptr, ...) @xsnprintf(ptr noundef nonnull %13, i64 noundef 12, ptr noundef nonnull @.str.15, i64 noundef %15) #11
  %17 = getelementptr inbounds nuw i8, ptr %1, i64 108
  %18 = tail call i32 (ptr, i64, ptr, ...) @xsnprintf(ptr noundef nonnull %17, i64 noundef 8, ptr noundef nonnull @.str.14, i32 noundef 0) #11
  %19 = getelementptr inbounds nuw i8, ptr %1, i64 116
  %20 = tail call i32 (ptr, i64, ptr, ...) @xsnprintf(ptr noundef nonnull %19, i64 noundef 8, ptr noundef nonnull @.str.14, i32 noundef 0) #11
  %21 = getelementptr inbounds nuw i8, ptr %1, i64 265
  %22 = tail call i64 @gitstrlcpy(ptr noundef nonnull %21, ptr noundef nonnull @.str.16, i64 noundef 32) #11
  %23 = getelementptr inbounds nuw i8, ptr %1, i64 297
  %24 = tail call i64 @gitstrlcpy(ptr noundef nonnull %23, ptr noundef nonnull @.str.16, i64 noundef 32) #11
  %25 = getelementptr inbounds nuw i8, ptr %1, i64 329
  %26 = tail call i32 (ptr, i64, ptr, ...) @xsnprintf(ptr noundef nonnull %25, i64 noundef 8, ptr noundef nonnull @.str.14, i32 noundef 0) #11
  %27 = getelementptr inbounds nuw i8, ptr %1, i64 337
  %28 = tail call i32 (ptr, i64, ptr, ...) @xsnprintf(ptr noundef nonnull %27, i64 noundef 8, ptr noundef nonnull @.str.14, i32 noundef 0) #11
  %29 = getelementptr inbounds nuw i8, ptr %1, i64 257
  tail call void @llvm.memcpy.p0.p0.i64(ptr noundef nonnull align 1 dereferenceable(6) %29, ptr noundef nonnull align 1 dereferenceable(6) @.str.17, i64 6, i1 false)
  %30 = getelementptr inbounds nuw i8, ptr %1, i64 263
  store i16 12336, ptr %30, align 1
  br label %31

31:                                               ; preds = %31, %4
  %.015.i = phi i32 [ 0, %4 ], [ %34, %31 ]
  %.011.idx14.i = phi i64 [ 0, %4 ], [ %.011.add.i, %31 ]
  %.011.ptr.ptr.i = getelementptr inbounds nuw i8, ptr %1, i64 %.011.idx14.i
  %.011.add.i = add nuw nsw i64 %.011.idx14.i, 1
  %32 = load i8, ptr %.011.ptr.ptr.i, align 1, !tbaa !63
  %33 = zext i8 %32 to i32
  %34 = add i32 %.015.i, %33
  %exitcond.not.i = icmp eq i64 %.011.add.i, 148
  br i1 %exitcond.not.i, label %.lr.ph.preheader.i, label %31, !llvm.loop !72

.lr.ph.preheader.i:                               ; preds = %31
  %35 = add i32 %34, 256
  br label %.lr.ph.i

.lr.ph.i:                                         ; preds = %.lr.ph.i, %.lr.ph.preheader.i
  %.117.i = phi i32 [ %38, %.lr.ph.i ], [ %35, %.lr.ph.preheader.i ]
  %.112.idx16.i = phi i64 [ %.112.add.i, %.lr.ph.i ], [ 156, %.lr.ph.preheader.i ]
  %.112.ptr.i = getelementptr inbounds nuw i8, ptr %1, i64 %.112.idx16.i
  %.112.add.i = add nuw nsw i64 %.112.idx16.i, 1
  %36 = load i8, ptr %.112.ptr.i, align 1, !tbaa !63
  %37 = zext i8 %36 to i32
  %38 = add i32 %.117.i, %37
  %exitcond19.not.i = icmp eq i64 %.112.add.i, 500
  br i1 %exitcond19.not.i, label %ustar_header_chksum.exit, label %.lr.ph.i, !llvm.loop !73

ustar_header_chksum.exit:                         ; preds = %.lr.ph.i
  %39 = getelementptr inbounds nuw i8, ptr %1, i64 148
  %40 = tail call i32 (ptr, i64, ptr, ...) @xsnprintf(ptr noundef nonnull %39, i64 noundef 8, ptr noundef nonnull @.str.14, i32 noundef %38) #11
  ret void
}